; Function Attrs: mustprogress nofree norecurse nosync nounwind memory(write, argmem: readwrite, inaccessiblemem: none) uwtable
define hidden void @bcdec_bc2(ptr nocapture noundef readonly %compressedBlock, ptr nocapture noundef writeonly %decompressedBlock, i32 noundef %destinationPitch) local_unnamed_addr #5 {
entry:
  %add.ptr = getelementptr inbounds i8, ptr %compressedBlock, i64 8
  tail call void @_Z18bcdec__color_blockPKvPvii(ptr noundef nonnull %add.ptr, ptr noundef %decompressedBlock, i32 noundef %destinationPitch, i32 noundef 1)
  %add.ptr1 = getelementptr inbounds i8, ptr %decompressedBlock, i64 3
  %idx.ext.i = sext i32 %destinationPitch to i64
  br label %for.cond1.preheader.i

for.cond1.preheader.i:                            ; preds = %for.end.i, %entry
  %indvars.iv12.i = phi i64 [ 0, %entry ], [ %indvars.iv.next13.i, %for.end.i ]
  %decompressed.08.i = phi ptr [ %add.ptr1, %entry ], [ %add.ptr.i, %for.end.i ]
  %arrayidx.i = getelementptr inbounds i16, ptr %compressedBlock, i64 %indvars.iv12.i
  br label %for.body3.i

for.body3.i:                                      ; preds = %for.body3.i, %for.cond1.preheader.i
  %indvars.iv.i = phi i64 [ 0, %for.cond1.preheader.i ], [ %indvars.iv.next.i, %for.body3.i ]
  %0 = load i16, ptr %arrayidx.i, align 2
  %conv.i = zext i16 %0 to i32
  %1 = shl nuw nsw i64 %indvars.iv.i, 2
  %2 = trunc i64 %1 to i32
  %shr.i = lshr i32 %conv.i, %2
  %3 = trunc i32 %shr.i to i8
  %4 = and i8 %3, 15
  %conv5.i = mul nuw i8 %4, 17
  %arrayidx8.i = getelementptr inbounds i8, ptr %decompressed.08.i, i64 %1
  store i8 %conv5.i, ptr %arrayidx8.i, align 1
  %indvars.iv.next.i = add nuw nsw i64 %indvars.iv.i, 1
  %exitcond.not.i = icmp eq i64 %indvars.iv.next.i, 4
  br i1 %exitcond.not.i, label %for.end.i, label %for.body3.i, !llvm.loop !7

for.end.i:                                        ; preds = %for.body3.i
  %add.ptr.i = getelementptr inbounds i8, ptr %decompressed.08.i, i64 %idx.ext.i
  %indvars.iv.next13.i = add nuw nsw i64 %indvars.iv12.i, 1
  %exitcond15.not.i = icmp eq i64 %indvars.iv.next13.i, 4
  br i1 %exitcond15.not.i, label %_Z24bcdec__sharp_alpha_blockPKvPvi.exit, label %for.cond1.preheader.i, !llvm.loop !8

_Z24bcdec__sharp_alpha_blockPKvPvi.exit:          ; preds = %for.end.i
  ret void
}